(lp0
S'https://openreview.net/forum?id=BkbY4psgg'
p1
aS'https://openreview.net/forum?id=rJxdQ3jeg'
p2
aS'https://openreview.net/forum?id=rJY0-Kcll'
p3
aS'https://openreview.net/forum?id=S1Bb3D5gg'
p4
aS'https://openreview.net/forum?id=Hk4_qw5xe'
p5
aS'https://openreview.net/forum?id=SJ6yPD5xg'
p6
aS'https://openreview.net/forum?id=Hk8N3Sclg'
p7
aS'https://openreview.net/forum?id=Sy8gdB9xx'
p8
aS'https://openreview.net/forum?id=r1Ue8Hcxg'
p9
aS'https://openreview.net/forum?id=SJ3rcZcxl'
p10
aS'https://openreview.net/forum?id=rJLS7qKel'
p11
aS'https://openreview.net/forum?id=H1oyRlYgg'
p12
aS'https://openreview.net/forum?id=HkwoSDPgg'
p13
aS'https://openreview.net/forum?id=S1RP6GLle'
p14
aS'https://openreview.net/forum?id=HJ0NvFzxl'
p15
aS'https://openreview.net/forum?id=Sks9_ajex'
p16
aS'https://openreview.net/forum?id=r1YNw6sxg'
p17
aS'https://openreview.net/forum?id=B1oK8aoxe'
p18
aS'https://openreview.net/forum?id=BJK3Xasel'
p19
aS'https://openreview.net/forum?id=SkkTMpjex'
p20
aS'https://openreview.net/forum?id=rJqFGTslg'
p21
aS'https://openreview.net/forum?id=BJAFbaolg'
p22
aS'https://openreview.net/forum?id=S1TER2oll'
p23
aS'https://openreview.net/forum?id=rk5upnsxe'
p24
aS'https://openreview.net/forum?id=HkEI22jeg'
p25
aS'https://openreview.net/forum?id=S1X7nhsxl'
p26
aS'https://openreview.net/forum?id=B1Igu2ogg'
p27
aS'https://openreview.net/forum?id=Hyq4yhile'
p28
aS'https://openreview.net/forum?id=B1gtu5ilg'
p29
aS'https://openreview.net/forum?id=BJhZeLsxx'
p30
aS'https://openreview.net/forum?id=SJJKxrsgl'
p31
aS'https://openreview.net/forum?id=SkYbF1slg'
p32
aS'https://openreview.net/forum?id=BJrFC6ceg'
p33
aS'https://openreview.net/forum?id=HJKkY35le'
p34
aS'https://openreview.net/forum?id=Skn9Shcxe'
p35
aS'https://openreview.net/forum?id=B184E5qee'
p36
aS'https://openreview.net/forum?id=Sk2Im59ex'
p37
aS'https://openreview.net/forum?id=B16dGcqlx'
p38
aS'https://openreview.net/forum?id=rk9eAFcxg'
p39
aS'https://openreview.net/forum?id=ry_sjFqgx'
p40
aS'https://openreview.net/forum?id=r1LXit5ee'
p41
aS'https://openreview.net/forum?id=HJGwcKclx'
p42
aS'https://openreview.net/forum?id=HJjiFK5gx'
p43
aS'https://openreview.net/forum?id=rJTKKKqeg'
p44
aS'https://openreview.net/forum?id=rJQKYt5ll'
p45
aS'https://openreview.net/forum?id=rJ0-tY5xe'
p46
aS'https://openreview.net/forum?id=B1ewdt9xe'
p47
aS'https://openreview.net/forum?id=Sk-oDY9ge'
p48
aS'https://openreview.net/forum?id=Hk95PK9le'
p49
aS'https://openreview.net/forum?id=BJKYvt5lg'
p50
aS'https://openreview.net/forum?id=BJYwwY9ll'
p51
aS'https://openreview.net/forum?id=Hk3mPK5gg'
p52
aS'https://openreview.net/forum?id=rJ0JwFcex'
p53
aS'https://openreview.net/forum?id=rkEFLFqee'
p54
aS'https://openreview.net/forum?id=HJDBUF5le'
p55
aS'https://openreview.net/forum?id=HJWHIKqgl'
p56
aS'https://openreview.net/forum?id=ryHlUtqge'
p57
aS'https://openreview.net/forum?id=S11KBYclx'
p58
aS'https://openreview.net/forum?id=ry4Vrt5gl'
p59
aS'https://openreview.net/forum?id=HJTzHtqee'
p60
aS'https://openreview.net/forum?id=H1VyHY9gg'
p61
aS'https://openreview.net/forum?id=Hku9NK5lx'
p62
aS'https://openreview.net/forum?id=BybtVK9lg'
p63
aS'https://openreview.net/forum?id=ryelgY5eg'
p64
aS'https://openreview.net/forum?id=B1M8JF9xx'
p65
aS'https://openreview.net/forum?id=S1_pAu9xl'
p66
aS'https://openreview.net/forum?id=HyoST_9xl'
p67
aS'https://openreview.net/forum?id=Bkab5dqxe'
p68
aS'https://openreview.net/forum?id=SJTQLdqlg'
p69
aS'https://openreview.net/forum?id=ByxpMd9lx'
p70
aS'https://openreview.net/forum?id=B1hdzd5lg'
p71
aS'https://openreview.net/forum?id=SyK00v5xx'
p72
aS'https://openreview.net/forum?id=BydARw9ex'
p73
aS'https://openreview.net/forum?id=r1nTpv9eg'
p74
aS'https://openreview.net/forum?id=ryT4pvqll'
p75
aS'https://openreview.net/forum?id=ryrGawqex'
p76
aS'https://openreview.net/forum?id=SyxeqhP9ll'
p77
aS'https://openreview.net/forum?id=SJGCiw5gl'
p78
aS'https://openreview.net/forum?id=B1MRcPclx'
p79
aS'https://openreview.net/forum?id=S1c2cvqee'
p80
aS'https://openreview.net/forum?id=B1-q5Pqxl'
p81
aS'https://openreview.net/forum?id=Bks8cPcxe'
p82
aS'https://openreview.net/forum?id=HJ0UKP9ge'
p83
aS'https://openreview.net/forum?id=HyGTuv9eg'
p84
aS'https://openreview.net/forum?id=rJeKjwvclx'
p85
aS'https://openreview.net/forum?id=SkxKPDv5xl'
p86
aS'https://openreview.net/forum?id=Bk8BvDqex'
p87
aS'https://openreview.net/forum?id=BylSPv9gx'
p88
aS'https://openreview.net/forum?id=rJiNwv9gg'
p89
aS'https://openreview.net/forum?id=HkE0Nvqlg'
p90
aS'https://openreview.net/forum?id=rJqBEPcxe'
p91
aS'https://openreview.net/forum?id=Hy6b4Pqee'
p92
aS'https://openreview.net/forum?id=HJ1kmv9xx'
p93
aS'https://openreview.net/forum?id=BysvGP5ee'
p94
aS'https://openreview.net/forum?id=S1dIzvclg'
p95
aS'https://openreview.net/forum?id=B1ckMDqlg'
p96
aS'https://openreview.net/forum?id=HkYhZDqxg'
p97
aS'https://openreview.net/forum?id=Hkg8bDqee'
p98
aS'https://openreview.net/forum?id=ry18Ww5ee'
p99
aS'https://openreview.net/forum?id=Byiy-Pqlx'
p100
aS'https://openreview.net/forum?id=H1zJ-v5xl'
p101
aS'https://openreview.net/forum?id=B1s6xvqlx'
p102
aS'https://openreview.net/forum?id=SyWvgP5el'
p103
aS'https://openreview.net/forum?id=Sy6iJDqlx'
p104
aS'https://openreview.net/forum?id=rJxDkvqee'
p105
aS'https://openreview.net/forum?id=rkFBJv9gg'
p106
aS'https://openreview.net/forum?id=Hkg4TI9xl'
p107
aS'https://openreview.net/forum?id=r1rz6U5lg'
p108
aS'https://openreview.net/forum?id=By5e2L9gl'
p109
aS'https://openreview.net/forum?id=HkNRsU5ge'
p110
aS'https://openreview.net/forum?id=BJC_jUqxe'
p111
aS'https://openreview.net/forum?id=ByOvsIqeg'
p112
aS'https://openreview.net/forum?id=H1acq85gx'
p113
aS'https://openreview.net/forum?id=S1jE5L5gl'
p114
aS'https://openreview.net/forum?id=BydrOIcle'
p115
aS'https://openreview.net/forum?id=rJbbOLcex'
p116
aS'https://openreview.net/forum?id=ByIAPUcee'
p117
aS'https://openreview.net/forum?id=HJGODLqgx'
p118
aS'https://openreview.net/forum?id=HyTqHL5xg'
p119
aS'https://openreview.net/forum?id=Byk-VI9eg'
p120
aS'https://openreview.net/forum?id=r1G4z8cge'
p121
aS'https://openreview.net/forum?id=Sy2fzU9gl'
p122
aS'https://openreview.net/forum?id=r1Aab85gg'
p123
aS'https://openreview.net/forum?id=BJ5UeU9xx'
p124
aS'https://openreview.net/forum?id=rkE3y85ee'
p125
aS'https://openreview.net/forum?id=ByqiJIqxg'
p126
aS'https://openreview.net/forum?id=SyQq185lg'
p127
aS'https://openreview.net/forum?id=SyVVJ85lg'
p128
aS'https://openreview.net/forum?id=B1kJ6H9ex'
p129
aS'https://openreview.net/forum?id=HkpbnH9lx'
p130
aS'https://openreview.net/forum?id=r1VdcHcxx'
p131
aS'https://openreview.net/forum?id=Skq89Scxx'
p132
aS'https://openreview.net/forum?id=ry2YOrcge'
p133
aS'https://openreview.net/forum?id=r1VGvBcxl'
p134
aS'https://openreview.net/forum?id=SJMGPrcle'
p135
aS'https://openreview.net/forum?id=ByldLrqlx'
p136
aS'https://openreview.net/forum?id=H1fl8S9ee'
p137
aS'https://openreview.net/forum?id=S1LVSrcge'
p138
aS'https://openreview.net/forum?id=HyxQzBceg'
p139
aS'https://openreview.net/forum?id=SJ25-B5eg'
p140
aS'https://openreview.net/forum?id=SJvYgH9xe'
p141
aS'https://openreview.net/forum?id=HJgXCV9xx'
p142
aS'https://openreview.net/forum?id=B1ElR4cgg'
p143
aS'https://openreview.net/forum?id=rkE8pVcle'
p144
aS'https://openreview.net/forum?id=H1W1UN9gg'
p145
aS'https://openreview.net/forum?id=S1VaB4cex'
p146
aS'https://openreview.net/forum?id=SJkXfE5xx'
p147
aS'https://openreview.net/forum?id=Bk0FWVcgx'
p148
aS'https://openreview.net/forum?id=B1GOWV5eg'
p149
aS'https://openreview.net/forum?id=S1oWlN9ll'
p150
aS'https://openreview.net/forum?id=rJ8Je4clg'
p151
aS'https://openreview.net/forum?id=ryh9pmcee'
p152
aS'https://openreview.net/forum?id=SkB-_mcel'
p153
aS'https://openreview.net/forum?id=HyQJ-mclg'
p154
aS'https://openreview.net/forum?id=B1YfAfcgl'
p155
aS'https://openreview.net/forum?id=SkhU2fcll'
p156
aS'https://openreview.net/forum?id=HyM25Mqel'
p157
aS'https://openreview.net/forum?id=BJ6oOfqge'
p158
aS'https://openreview.net/forum?id=SJzCSf9xg'
p159
aS'https://openreview.net/forum?id=H12GRgcxg'
p160
aS'https://openreview.net/forum?id=Skvgqgqxe'
p161
aS'https://openreview.net/forum?id=Sys6GJqxl'
p162
aS'https://openreview.net/forum?id=ryxB0Rtxx'
p163
aS'https://openreview.net/forum?id=BJtNZAFgg'
p164
aS'https://openreview.net/forum?id=rJ8uNptgl'
p165
aS'https://openreview.net/forum?id=rJPcZ3txx'
p166
aS'https://openreview.net/forum?id=S1jmAotxg'
p167
aS'https://openreview.net/forum?id=rJfMusFll'
p168
aS'https://openreview.net/forum?id=HkljfjFee'
p169
aS'https://openreview.net/forum?id=r1aPbsFle'
p170
aS'https://openreview.net/forum?id=ryhqQFKgl'
p171
aS'https://openreview.net/forum?id=ryMxXPFex'
p172
aS'https://openreview.net/forum?id=r10FA8Kxg'
p173
aS'https://openreview.net/forum?id=HJpfMIFll'
p174
aS'https://openreview.net/forum?id=BymIbLKgl'
p175
aS'https://openreview.net/forum?id=Hk8TGSKlg'
p176
aS'https://openreview.net/forum?id=BkLhzHtlg'
p177
aS'https://openreview.net/forum?id=BJm4T4Kgx'
p178
aS'https://openreview.net/forum?id=rJEgeXFex'
p179
aS'https://openreview.net/forum?id=SJRpRfKxx'
p180
aS'https://openreview.net/forum?id=BkVsEMYel'
p181
aS'https://openreview.net/forum?id=BJ3filKll'
p182
aS'https://openreview.net/forum?id=SJU4ayYgl'
p183
aS'https://openreview.net/forum?id=r1fYuytex'
p184
aS'https://openreview.net/forum?id=r1X3g2_xl'
p185
aS'https://openreview.net/forum?id=BJh6Ztuxl'
p186
aS'https://openreview.net/forum?id=Byj72udxe'
p187
aS'https://openreview.net/forum?id=SJDaqqveg'
p188
aS'https://openreview.net/forum?id=SJGPL9Dex'
p189
aS'https://openreview.net/forum?id=HyAbMKwxe'
p190
aS'https://openreview.net/forum?id=ryuxYmvel'
p191
aS'https://openreview.net/forum?id=SkpSlKIel'
p192
aS'https://openreview.net/forum?id=S1di0sfgl'
p193
aS'https://openreview.net/forum?id=HkNKFiGex'
p194
aS'https://openreview.net/forum?id=rkGabzZgl'
p195
aS'https://openreview.net/forum?id=rkpACe1lx'
p196
aS'https://openreview.net/forum?id=BJO-BuT1g'
p197
aS'https://openreview.net/forum?id=r1rhWnZkg'
p198
aS'https://openreview.net/forum?id=HJ5PIaseg'
p199
aS'https://openreview.net/forum?id=Hy-2G6ile'
p200
aS'https://openreview.net/forum?id=Bkul3t9ee'
p201
aS'https://openreview.net/forum?id=SywUHFcge'
p202
aS'https://openreview.net/forum?id=HJStZKqel'
p203
aS'https://openreview.net/forum?id=SkuqA_cgx'
p204
aS'https://openreview.net/forum?id=S1Y0td9ee'
p205
aS'https://openreview.net/forum?id=HkJq1Ocxl'
p206
aS'https://openreview.net/forum?id=By14kuqxx'
p207
aS'https://openreview.net/forum?id=HJTXaw9gx'
p208
aS'https://openreview.net/forum?id=H1wgawqxl'
p209
aS'https://openreview.net/forum?id=rJ6DhP5xe'
p210
aS'https://openreview.net/forum?id=HJF3iD9xe'
p211
aS'https://openreview.net/forum?id=rkYmiD9lg'
p212
aS'https://openreview.net/forum?id=ByBwSPcex'
p213
aS'https://openreview.net/forum?id=HJOZBvcel'
p214
aS'https://openreview.net/forum?id=H1oRQDqlg'
p215
aS'https://openreview.net/forum?id=r1GKzP5xx'
p216
aS'https://openreview.net/forum?id=Hyvw0L9el'
p217
aS'https://openreview.net/forum?id=H1Fk2Iqex'
p218
aS'https://openreview.net/forum?id=Hk85q85ee'
p219
aS'https://openreview.net/forum?id=rkmDI85ge'
p220
aS'https://openreview.net/forum?id=HJ9rLLcxg'
p221
aS'https://openreview.net/forum?id=S1QefL5ge'
p222
aS'https://openreview.net/forum?id=HyWG0H5ge'
p223
aS'https://openreview.net/forum?id=Hk4kQHceg'
p224
aS'https://openreview.net/forum?id=HkpLeH9el'
p225
aS'https://openreview.net/forum?id=BJ8fyHceg'
p226
aS'https://openreview.net/forum?id=Bk2TqVcxe'
p227
aS'https://openreview.net/forum?id=SkXIrV9le'
p228
aS'https://openreview.net/forum?id=SyJNmVqgg'
p229
aS'https://openreview.net/forum?id=Bk8aOm9xl'
p230
aS'https://openreview.net/forum?id=B16Jem9xe'
p231
aS'https://openreview.net/forum?id=ByG4hz5le'
p232
aS'https://openreview.net/forum?id=SyZprb5xg'
p233
aS'https://openreview.net/forum?id=BkGakb9lx'
p234
aS'https://openreview.net/forum?id=B1vRTeqxg'
p235
aS'https://openreview.net/forum?id=r1R5Z19le'
p236
aS'https://openreview.net/forum?id=BJRIA3Fgg'
p237
aS'https://openreview.net/forum?id=r1br_2Kge'
p238
aS'https://openreview.net/forum?id=H1kjdOYlx'
p239
aS'https://openreview.net/forum?id=r1xUYDYgg'
p240
aS'https://openreview.net/forum?id=SyEiHNKxx'
p241
aS'https://openreview.net/forum?id=S1Bm3T_lg'
p242
aS'https://openreview.net/forum?id=ryUPiRvge'
p243
aS'https://openreview.net/forum?id=S1OufnIlx'
p244
aS'https://openreview.net/forum?id=B1jnyXXJx'
p245
aS'https://openreview.net/forum?id=HkNEuToge'
p246
aS'https://openreview.net/forum?id=B1ZXuTolx'
p247
aS'https://openreview.net/forum?id=ByvJuTigl'
p248
aS'https://openreview.net/forum?id=ry_4vpixl'
p249
aS'https://openreview.net/forum?id=H1_EDpogx'
p250
aS'https://openreview.net/forum?id=HJrDIpiee'
p251
aS'https://openreview.net/forum?id=Byx5BTilg'
p252
aS'https://openreview.net/forum?id=rkuDV6iex'
p253
aS'https://openreview.net/forum?id=SJ8BZTjeg'
p254
aS'https://openreview.net/forum?id=SyOvg6jxx'
p255
aS'https://openreview.net/forum?id=B1-Hhnslg'
p256
aS'https://openreview.net/forum?id=HkuVu3ige'
p257
aS'https://openreview.net/forum?id=r17RD2oxe'
p258
aS'https://openreview.net/forum?id=Sk8J83oee'
p259
aS'https://openreview.net/forum?id=S1JG13oee'
p260
aS'https://openreview.net/forum?id=ByZvfijeg'
p261
aS'https://openreview.net/forum?id=ry7O1ssex'
p262
aS'https://openreview.net/forum?id=ryaFG5ige'
p263
aS'https://openreview.net/forum?id=Hk-mgcsgx'
p264
aS'https://openreview.net/forum?id=H1Go7Koex'
p265
aS'https://openreview.net/forum?id=BJjn-Yixl'
p266
aS'https://openreview.net/forum?id=ryQbbFile'
p267
aS'https://openreview.net/forum?id=HyY4Owjll'
p268
aS'https://openreview.net/forum?id=SJk01vogl'
p269
aS'https://openreview.net/forum?id=SyW2QSige'
p270
aS'https://openreview.net/forum?id=HyWDCXjgx'
p271
aS'https://openreview.net/forum?id=rywUcQogx'
p272
aS'https://openreview.net/forum?id=HJDdiT9gl'
p273
aS'https://openreview.net/forum?id=ryF7rTqgl'
p274
aS'https://openreview.net/forum?id=Syfkm6cgx'
p275
aS'https://openreview.net/forum?id=ryCcJaqgl'
p276
aS'https://openreview.net/forum?id=H1MjAnqxg'
p277
aS'https://openreview.net/forum?id=r1S083cgx'
p278
aS'https://openreview.net/forum?id=ryTYxh5ll'
p279
aS'https://openreview.net/forum?id=ByEPMj5el'
p280
aS'https://openreview.net/forum?id=SJZAb5cel'
p281
aS'https://openreview.net/forum?id=HyenWc5gx'
p282
aS'https://openreview.net/forum?id=ryjp1c9xg'
p283
aS'https://openreview.net/forum?id=SkwSJ99ex'
p284
aS'https://openreview.net/forum?id=SJ_QCYqle'
p285
aS'https://openreview.net/forum?id=S19eAF9ee'
p286
aS'https://openreview.net/forum?id=r1te3Fqel'
p287
aS'https://openreview.net/forum?id=r1IRctqxg'
p288
aS'https://openreview.net/forum?id=Bk3F5Y9lx'
p289
aS'https://openreview.net/forum?id=HJtN5K9gx'
p290
aS'https://openreview.net/forum?id=rkaRFYcgl'
p291
aS'https://openreview.net/forum?id=r1Chut9xl'
p292
aS'https://openreview.net/forum?id=r1PRvK9el'
p293
aS'https://openreview.net/forum?id=rJY3vK9eg'
p294
aS'https://openreview.net/forum?id=BkUDvt5gg'
p295
aS'https://openreview.net/forum?id=BJC8LF9ex'
p296
aS'https://openreview.net/forum?id=BJFG8Yqxl'
p297
aS'https://openreview.net/forum?id=ry3iBFqgl'
p298
aS'https://openreview.net/forum?id=HkcdHtqlx'
p299
aS'https://openreview.net/forum?id=rJbPBt9lg'
p300
aS'https://openreview.net/forum?id=B1KBHtcel'
p301
aS'https://openreview.net/forum?id=Hy0L4t5el'
p302
aS'https://openreview.net/forum?id=BJVEEF9lx'
p303
aS'https://openreview.net/forum?id=SkJeEtclx'
p304
aS'https://openreview.net/forum?id=Sks3zF9eg'
p305
aS'https://openreview.net/forum?id=BkIqod5ll'
p306
aS'https://openreview.net/forum?id=ByToKu9ll'
p307
aS'https://openreview.net/forum?id=r1w7Jdqxl'
p308
aS'https://openreview.net/forum?id=HkxAAvcxx'
p309
aS'https://openreview.net/forum?id=ByW2Avqgg'
p310
aS'https://openreview.net/forum?id=HyWWpw5ex'
p311
aS'https://openreview.net/forum?id=By1snw5gl'
p312
aS'https://openreview.net/forum?id=H13F3Pqll'
p313
aS'https://openreview.net/forum?id=rkFd2P5gl'
p314
aS'https://openreview.net/forum?id=H178hw9ex'
p315
aS'https://openreview.net/forum?id=rkjZ2Pcxe'
p316
aS'https://openreview.net/forum?id=HksioDcxl'
p317
aS'https://openreview.net/forum?id=r1Usiwcex'
p318
aS'https://openreview.net/forum?id=Sk8csP5ex'
p319
aS'https://openreview.net/forum?id=B186cP9gx'
p320
aS'https://openreview.net/forum?id=Syoiqwcxx'
p321
aS'https://openreview.net/forum?id=SJttqw5ge'
p322
aS'https://openreview.net/forum?id=HJcLcw9xg'
p323
aS'https://openreview.net/forum?id=B1G9tvcgx'
p324
aS'https://openreview.net/forum?id=ryEGFD9gl'
p325
aS'https://openreview.net/forum?id=BJbD_Pqlg'
p326
aS'https://openreview.net/forum?id=HJPmdP9le'
p327
aS'https://openreview.net/forum?id=rJJRDvcex'
p328
aS'https://openreview.net/forum?id=ByC7ww9le'
p329
aS'https://openreview.net/forum?id=B1E7Pwqgl'
p330
aS'https://openreview.net/forum?id=SkCILwqex'
p331
aS'https://openreview.net/forum?id=BkmM8Dceg'
p332
aS'https://openreview.net/forum?id=r1BJLw9ex'
p333
aS'https://openreview.net/forum?id=H1_QSDqxl'
p334
aS'https://openreview.net/forum?id=SkC_7v5gx'
p335
aS'https://openreview.net/forum?id=SJgWQPcxl'
p336
aS'https://openreview.net/forum?id=HJSCGD9ex'
p337
aS'https://openreview.net/forum?id=Sy4tzwqxe'
p338
aS'https://openreview.net/forum?id=BJ_MGwqlg'
p339
aS'https://openreview.net/forum?id=HyecJGP5ge'
p340
aS'https://openreview.net/forum?id=HJV1zP5xg'
p341
aS'https://openreview.net/forum?id=HycUbvcge'
p342
aS'https://openreview.net/forum?id=SkyQWDcex'
p343
aS'https://openreview.net/forum?id=HkSOlP9lg'
p344
aS'https://openreview.net/forum?id=BJ--gPcxl'
p345
aS'https://openreview.net/forum?id=Bkfwyw5xg'
p346
aS'https://openreview.net/forum?id=BkJsCIcgl'
p347
aS'https://openreview.net/forum?id=Bk0MRI5lg'
p348
aS'https://openreview.net/forum?id=rye9LT8cee'
p349
aS'https://openreview.net/forum?id=Bk_zTU5eg'
p350
aS'https://openreview.net/forum?id=rkpdnIqlx'
p351
aS'https://openreview.net/forum?id=SJJN38cge'
p352
aS'https://openreview.net/forum?id=ryPx38qge'
p353
aS'https://openreview.net/forum?id=SJc1hL5ee'
p354
aS'https://openreview.net/forum?id=r1Bjj8qge'
p355
aS'https://openreview.net/forum?id=HkyYqU9lx'
p356
aS'https://openreview.net/forum?id=r1WUqIceg'
p357
aS'https://openreview.net/forum?id=SJg498clg'
p358
aS'https://openreview.net/forum?id=BkSmc8qll'
p359
aS'https://openreview.net/forum?id=rJJ3YU5ge'
p360
aS'https://openreview.net/forum?id=H1hoFU9xe'
p361
aS'https://openreview.net/forum?id=Hk1iOLcle'
p362
aS'https://openreview.net/forum?id=S1HcOI5le'
p363
aS'https://openreview.net/forum?id=SkgewU5ll'
p364
aS'https://openreview.net/forum?id=HkCjNI5ex'
p365
aS'https://openreview.net/forum?id=H1eLE8qlx'
p366
aS'https://openreview.net/forum?id=r1aGWUqgg'
p367
aS'https://openreview.net/forum?id=BycCx8qex'
p368
aS'https://openreview.net/forum?id=Hk8rlUqge'
p369
aS'https://openreview.net/forum?id=BJ0Ee8cxx'
p370
aS'https://openreview.net/forum?id=B1mAJI9gl'
p371
aS'https://openreview.net/forum?id=rJg_1L5gg'
p372
aS'https://openreview.net/forum?id=BkdpaH9ll'
p373
aS'https://openreview.net/forum?id=BkSqjHqxg'
p374
aS'https://openreview.net/forum?id=rJM69B5xx'
p375
aS'https://openreview.net/forum?id=BJmCKBqgl'
p376
aS'https://openreview.net/forum?id=rJq_YBqxx'
p377
aS'https://openreview.net/forum?id=SJiFvr9el'
p378
aS'https://openreview.net/forum?id=H1GEvHcee'
p379
aS'https://openreview.net/forum?id=SJIMPr9eg'
p380
aS'https://openreview.net/forum?id=rJe-Pr9le'
p381
aS'https://openreview.net/forum?id=SygGlIBcel'
p382
aS'https://openreview.net/forum?id=Hyanrrqlg'
p383
aS'https://openreview.net/forum?id=BkV4VS9ll'
p384
aS'https://openreview.net/forum?id=SJ-uGHcee'
p385
aS'https://openreview.net/forum?id=BJluGHcee'
p386
aS'https://openreview.net/forum?id=Bygq-H9eg'
p387
aS'https://openreview.net/forum?id=HysBZSqlx'
p388
aS'https://openreview.net/forum?id=HJlgm-B9lx'
p389
aS'https://openreview.net/forum?id=HyCRyS9gx'
p390
aS'https://openreview.net/forum?id=BkjLkSqxg'
p391
aS'https://openreview.net/forum?id=HJIY0E9ge'
p392
aS'https://openreview.net/forum?id=ryWKREqxx'
p393
aS'https://openreview.net/forum?id=S13wCE9xx'
p394
aS'https://openreview.net/forum?id=HkLXCE9lx'
p395
aS'https://openreview.net/forum?id=Hkz6aNqle'
p396
aS'https://openreview.net/forum?id=BysZhEqee'
p397
aS'https://openreview.net/forum?id=ryZqPN5xe'
p398
aS'https://openreview.net/forum?id=Hk6a8N5xe'
p399
aS'https://openreview.net/forum?id=Hy-lMNqex'
p400
aS'https://openreview.net/forum?id=HyFkG45gl'
p401
aS'https://openreview.net/forum?id=Bkbc-Vqeg'
p402
aS'https://openreview.net/forum?id=BJ9fZNqle'
p403
aS'https://openreview.net/forum?id=ByG8A7cee'
p404
aS'https://openreview.net/forum?id=SJCscQcge'
p405
aS'https://openreview.net/forum?id=H1Gq5Q9el'
p406
aS'https://openreview.net/forum?id=Hk1l9Xqxe'
p407
aS'https://openreview.net/forum?id=HkIQH7qel'
p408
aS'https://openreview.net/forum?id=B1IzH7cxl'
p409
aS'https://openreview.net/forum?id=Bkepl7cee'
p410
aS'https://openreview.net/forum?id=Bkp_y7qxe'
p411
aS'https://openreview.net/forum?id=HkvS3Mqxe'
p412
aS'https://openreview.net/forum?id=HJy_5Mcll'
p413
aS'https://openreview.net/forum?id=SJBr9Mcxl'
p414
aS'https://openreview.net/forum?id=B1PA8fqeg'
p415
aS'https://openreview.net/forum?id=ryh_8f9lg'
p416
aS'https://openreview.net/forum?id=HyNxRZ9xg'
p417
aS'https://openreview.net/forum?id=rky3QW9le'
p418
aS'https://openreview.net/forum?id=SJUdkecgx'
p419
aS'https://openreview.net/forum?id=BkXMikqxx'
p420
aS'https://openreview.net/forum?id=HJ1JBJ5gl'
p421
aS'https://openreview.net/forum?id=B1akgy9xx'
p422
aS'https://openreview.net/forum?id=BJa0ECFxe'
p423
aS'https://openreview.net/forum?id=BJlxmAKlg'
p424
aS'https://openreview.net/forum?id=r1yjkAtxe'
p425
aS'https://openreview.net/forum?id=Hy8X3aKee'
p426
aS'https://openreview.net/forum?id=rJsiFTYex'
p427
aS'https://openreview.net/forum?id=HJhcg6Fxg'
p428
aS'https://openreview.net/forum?id=ryT9R3Yxe'
p429
aS'https://openreview.net/forum?id=rksfwnFxl'
p430
aS'https://openreview.net/forum?id=H1Heentlx'
p431
aS'https://openreview.net/forum?id=Sk2iistgg'
p432
aS'https://openreview.net/forum?id=BJuysoFeg'
p433
aS'https://openreview.net/forum?id=S1xh5sYgx'
p434
aS'https://openreview.net/forum?id=HJWzXsKxx'
p435
aS'https://openreview.net/forum?id=S1j4RqYxg'
p436
aS'https://openreview.net/forum?id=SygvTcYee'
p437
aS'https://openreview.net/forum?id=rJo9n9Feg'
p438
aS'https://openreview.net/forum?id=B1TTpYKgx'
p439
aS'https://openreview.net/forum?id=HyET6tYex'
p440
aS'https://openreview.net/forum?id=Sywh5KYex'
p441
aS'https://openreview.net/forum?id=Sy1rwtKxg'
p442
aS'https://openreview.net/forum?id=Hy3_KuYxg'
p443
aS'https://openreview.net/forum?id=rJzaDdYxx'
p444
aS'https://openreview.net/forum?id=BJAA4wKxg'
p445
aS'https://openreview.net/forum?id=SJQNqLFgl'
p446
aS'https://openreview.net/forum?id=SkgSXUKxx'
p447
aS'https://openreview.net/forum?id=r1tHvHKge'
p448
aS'https://openreview.net/forum?id=SJx7Jrtgl'
p449
aS'https://openreview.net/forum?id=Bk67W4Yxl'
p450
aS'https://openreview.net/forum?id=r1kQkVFgl'
p451
aS'https://openreview.net/forum?id=SJAr0QFxe'
p452
aS'https://openreview.net/forum?id=SkBsEQYll'
p453
aS'https://openreview.net/forum?id=S1AG8zYeg'
p454
aS'https://openreview.net/forum?id=rJRhzzKxl'
p455
aS'https://openreview.net/forum?id=S1Jhfftgx'
p456
aS'https://openreview.net/forum?id=HJeqWztlg'
p457
aS'https://openreview.net/forum?id=ry54RWtxx'
p458
aS'https://openreview.net/forum?id=Sk36NgFeg'
p459
aS'https://openreview.net/forum?id=HJ7O61Yxe'
p460
aS'https://openreview.net/forum?id=rkKCdAdgx'
p461
aS'https://openreview.net/forum?id=BJxhLAuxg'
p462
aS'https://openreview.net/forum?id=HJ6idTdgg'
p463
aS'https://openreview.net/forum?id=Sy7m72Ogg'
p464
aS'https://openreview.net/forum?id=ByQPVFull'
p465
aS'https://openreview.net/forum?id=HyEeMu_xx'
p466
aS'https://openreview.net/forum?id=BJwFrvOeg'
p467
aS'https://openreview.net/forum?id=r1osyr_xg'
p468
aS'https://openreview.net/forum?id=SJNDWNOlg'
p469
aS'https://openreview.net/forum?id=ryb-q1Olg'
p470
aS'https://openreview.net/forum?id=SypU81Ole'
p471
aS'https://openreview.net/forum?id=r1kGbydxg'
p472
aS'https://openreview.net/forum?id=r1y1aawlg'
p473
aS'https://openreview.net/forum?id=SyCSsUDee'
p474
aS'https://openreview.net/forum?id=ByOK0rwlx'
p475
aS'https://openreview.net/forum?id=Bk8N0RLxx'
p476
aS'https://openreview.net/forum?id=HkzuKpLgg'
p477
aS'https://openreview.net/forum?id=BJ46w6Ule'
p478
aS'https://openreview.net/forum?id=BkfiXiUlg'
p479
aS'https://openreview.net/forum?id=HyAddcLge'
p480
aS'https://openreview.net/forum?id=SJqaCVLxx'
p481
aS'https://openreview.net/forum?id=SkqMSCHxe'
p482
aS'https://openreview.net/forum?id=rJXTf9Bxg'
p483
aS'https://openreview.net/forum?id=ryAe2WBee'
p484
aS'https://openreview.net/forum?id=HyQWFOVge'
p485
aS'https://openreview.net/forum?id=ryXZmzNeg'
p486
aS'https://openreview.net/forum?id=S1HEBe_Jl'
p487
aS'https://openreview.net/forum?id=S1vyujVye'
p488
aS'https://openreview.net/forum?id=BkCPyXm1l'
p489
aS'https://openreview.net/forum?id=S1J0E-71l'
p490
a.